target datalayout = "e-m:e-p270:32:32-p271:32:32-p272:64:64-i64:64-i128:128-f80:128-n8:16:32:64-S128"
target triple = "x86_64-pc-linux-gnu"

%struct.printQueryOpt = type { %struct.printTableOpt, ptr, ptr, ptr, i8, ptr, i32 }
%struct.printTableOpt = type { i32, i16, i32, i32, i16, i16, i32, i8, i8, i8, i8, i64, ptr, %struct.separator, %struct.separator, [2 x i8], i8, ptr, i32, i32, i32, i32, i32, i32 }
%struct.separator = type { ptr, i8 }

; Function Attrs: nounwind uwtable
define dso_local void @restorePsetInfo(ptr noundef %0, ptr noundef %1) #0 {
  %3 = alloca ptr, align 8
  %4 = alloca ptr, align 8
  store ptr %0, ptr %3, align 8
  store ptr %1, ptr %4, align 8
  %5 = load ptr, ptr %3, align 8
  %6 = getelementptr inbounds nuw %struct.printQueryOpt, ptr %5, i32 0, i32 0
  %7 = getelementptr inbounds nuw %struct.printTableOpt, ptr %6, i32 0, i32 13
  %8 = getelementptr inbounds nuw %struct.separator, ptr %7, i32 0, i32 0
  %9 = load ptr, ptr %8, align 8
  call void @free(ptr noundef %9) #10
  %10 = load ptr, ptr %3, align 8
  %11 = getelementptr inbounds nuw %struct.printQueryOpt, ptr %10, i32 0, i32 0
  %12 = getelementptr inbounds nuw %struct.printTableOpt, ptr %11, i32 0, i32 14
  %13 = getelementptr inbounds nuw %struct.separator, ptr %12, i32 0, i32 0
  %14 = load ptr, ptr %13, align 8
  call void @free(ptr noundef %14) #10
  %15 = load ptr, ptr %3, align 8
  %16 = getelementptr inbounds nuw %struct.printQueryOpt, ptr %15, i32 0, i32 0
  %17 = getelementptr inbounds nuw %struct.printTableOpt, ptr %16, i32 0, i32 17
  %18 = load ptr, ptr %17, align 8
  call void @free(ptr noundef %18) #10
  %19 = load ptr, ptr %3, align 8
  %20 = getelementptr inbounds nuw %struct.printQueryOpt, ptr %19, i32 0, i32 1
  %21 = load ptr, ptr %20, align 8
  call void @free(ptr noundef %21) #10
  %22 = load ptr, ptr %3, align 8
  %23 = getelementptr inbounds nuw %struct.printQueryOpt, ptr %22, i32 0, i32 2
  %24 = load ptr, ptr %23, align 8
  call void @free(ptr noundef %24) #10
  %25 = load ptr, ptr %3, align 8
  %26 = load ptr, ptr %4, align 8
  call void @llvm.memcpy.p0.p0.i64(ptr align 8 %25, ptr align 8 %26, i64 168, i1 false)
  %27 = load ptr, ptr %4, align 8
  call void @free(ptr noundef %27) #10
  ret void
}