; Function Attrs: mustprogress nounwind willreturn uwtable
define dso_local void @restorePsetInfo(ptr noundef captures(none) initializes((0, 48), (56, 64), (72, 88), (96, 120), (136, 168)) %0, ptr noundef captures(none) %1) local_unnamed_addr #8 {
  %3 = getelementptr inbounds nuw i8, ptr %0, i64 48
  %4 = load ptr, ptr %3, align 8
  tail call void @free(ptr noundef %4) #16
  %5 = getelementptr inbounds nuw i8, ptr %0, i64 64
  %6 = load ptr, ptr %5, align 8
  tail call void @free(ptr noundef %6) #16
  %7 = getelementptr inbounds nuw i8, ptr %0, i64 88
  %8 = load ptr, ptr %7, align 8
  tail call void @free(ptr noundef %8) #16
  %9 = getelementptr inbounds nuw i8, ptr %0, i64 120
  %10 = load ptr, ptr %9, align 8
  tail call void @free(ptr noundef %10) #16
  %11 = getelementptr inbounds nuw i8, ptr %0, i64 128
  %12 = load ptr, ptr %11, align 8
  tail call void @free(ptr noundef %12) #16
  tail call void @llvm.memcpy.p0.p0.i64(ptr noundef nonnull align 8 dereferenceable(168) %0, ptr noundef nonnull align 8 dereferenceable(168) %1, i64 168, i1 false)
  tail call void @free(ptr noundef %1) #16
  ret void
}